target datalayout = "e-m:e-p270:32:32-p271:32:32-p272:64:64-i64:64-i128:128-f80:128-n8:16:32:64-S128"
target triple = "x86_64-pc-linux-gnu"

%"class.std::__shared_count" = type { ptr }
%"class.gmx::analysismodules::(anonymous namespace)::Distance" = type { %"class.gmx::TrajectoryAnalysisModule", %"class.std::vector", %"class.std::__cxx11::basic_string", %"class.std::__cxx11::basic_string", %"class.std::__cxx11::basic_string", %"class.std::__cxx11::basic_string", %"class.std::__cxx11::basic_string", double, double, double, %"class.gmx::AnalysisData", %"class.gmx::AnalysisData", %"class.std::shared_ptr", %"class.std::shared_ptr", %"class.std::shared_ptr.29", %"class.std::shared_ptr.32" }
%"class.gmx::TrajectoryAnalysisModule" = type { ptr, %"class.std::unique_ptr.2" }
%"class.std::unique_ptr.2" = type { %"struct.std::__uniq_ptr_data.3" }
%"struct.std::__uniq_ptr_data.3" = type { %"class.std::__uniq_ptr_impl.4" }
%"class.std::__uniq_ptr_impl.4" = type { %"class.std::tuple.5" }
%"class.std::tuple.5" = type { %"struct.std::_Tuple_impl.6" }
%"struct.std::_Tuple_impl.6" = type { %"struct.std::_Head_base.9" }
%"struct.std::_Head_base.9" = type { ptr }
%"class.std::vector" = type { %"struct.std::_Vector_base" }
%"struct.std::_Vector_base" = type { %"struct.std::_Vector_base<gmx::Selection, std::allocator<gmx::Selection>>::_Vector_impl" }
%"struct.std::_Vector_base<gmx::Selection, std::allocator<gmx::Selection>>::_Vector_impl" = type { %"struct.std::_Vector_base<gmx::Selection, std::allocator<gmx::Selection>>::_Vector_impl_data" }
%"struct.std::_Vector_base<gmx::Selection, std::allocator<gmx::Selection>>::_Vector_impl_data" = type { ptr, ptr, ptr }
%"class.std::__cxx11::basic_string" = type { %"struct.std::__cxx11::basic_string<char>::_Alloc_hider", i64, %union.anon }
%"struct.std::__cxx11::basic_string<char>::_Alloc_hider" = type { ptr }
%union.anon = type { i64, [8 x i8] }
%"class.gmx::AnalysisData" = type { %"class.gmx::AbstractAnalysisData", %"class.std::unique_ptr.21" }
%"class.gmx::AbstractAnalysisData" = type { ptr, %"class.std::unique_ptr.13" }
%"class.std::unique_ptr.13" = type { %"struct.std::__uniq_ptr_data.14" }
%"struct.std::__uniq_ptr_data.14" = type { %"class.std::__uniq_ptr_impl.15" }
%"class.std::__uniq_ptr_impl.15" = type { %"class.std::tuple.16" }
%"class.std::tuple.16" = type { %"struct.std::_Tuple_impl.17" }
%"struct.std::_Tuple_impl.17" = type { %"struct.std::_Head_base.20" }
%"struct.std::_Head_base.20" = type { ptr }
%"class.std::unique_ptr.21" = type { %"struct.std::__uniq_ptr_data.22" }
%"struct.std::__uniq_ptr_data.22" = type { %"class.std::__uniq_ptr_impl.23" }
%"class.std::__uniq_ptr_impl.23" = type { %"class.std::tuple.24" }
%"class.std::tuple.24" = type { %"struct.std::_Tuple_impl.25" }
%"struct.std::_Tuple_impl.25" = type { %"struct.std::_Head_base.28" }
%"struct.std::_Head_base.28" = type { ptr }
%"class.std::shared_ptr" = type { %"class.std::__shared_ptr" }
%"class.std::__shared_ptr" = type { ptr, %"class.std::__shared_count" }
%"class.std::shared_ptr.29" = type { %"class.std::__shared_ptr.30" }
%"class.std::__shared_ptr.30" = type { ptr, %"class.std::__shared_count" }
%"class.std::shared_ptr.32" = type { %"class.std::__shared_ptr.33" }
%"class.std::__shared_ptr.33" = type { ptr, %"class.std::__shared_count" }
%"class.gmx::FlagsTemplate.126" = type { i64 }
%"class.__gnu_cxx::__normal_iterator" = type { ptr }
%"class.__gnu_cxx::__normal_iterator.165" = type { ptr }
%"class.gmx::Selection" = type { ptr }
%"class.gmx::internal::SelectionData" = type <{ %"class.std::__cxx11::basic_string", %"class.std::__cxx11::basic_string", %struct.gmx_ana_pos_t, %"class.std::vector.64", %"class.std::vector.64", %"class.gmx::FlagsTemplate.126", ptr, i32, float, float, i8, i8, [2 x i8] }>
%struct.gmx_ana_pos_t = type <{ ptr, ptr, ptr, %struct.gmx_ana_indexmap_t, i32, [4 x i8] }>
%struct.gmx_ana_indexmap_t = type { i32, ptr, ptr, %struct.t_blocka, ptr, %struct.t_blocka, i8 }
%struct.t_blocka = type { i32, ptr, i32, ptr, i32, i32 }
%"class.std::vector.64" = type { %"struct.std::_Vector_base.65" }
%"struct.std::_Vector_base.65" = type { %"struct.std::_Vector_base<float, std::allocator<float>>::_Vector_impl" }
%"struct.std::_Vector_base<float, std::allocator<float>>::_Vector_impl" = type { %"struct.std::_Vector_base<float, std::allocator<float>>::_Vector_impl_data" }
%"struct.std::_Vector_base<float, std::allocator<float>>::_Vector_impl_data" = type { ptr, ptr, ptr }

@.str.61 = private unnamed_addr constant [5 x i8] c"%s:\0A\00", align 1
@.str.62 = private unnamed_addr constant [26 x i8] c"  Number of samples:  %d\0A\00", align 1
@.str.63 = private unnamed_addr constant [33 x i8] c"  Average distance:   %-8.5f nm\0A\00", align 1
@.str.64 = private unnamed_addr constant [33 x i8] c"  Standard deviation: %-8.5f nm\0A\00", align 1

; Function Attrs: mustprogress nounwind uwtable
define linkonce_odr noundef ptr @_ZNKSt12__shared_ptrIN3gmx25AnalysisDataAverageModuleELN9__gnu_cxx12_Lock_policyE2EE3getEv(ptr noundef nonnull align 8 dereferenceable(16) %0) #3 comdat align 2 {
  %2 = alloca ptr, align 8
  store ptr %0, ptr %2, align 8
  %3 = load ptr, ptr %2, align 8
  %4 = getelementptr inbounds %"class.std::__shared_ptr", ptr %3, i32 0, i32 0
  %5 = load ptr, ptr %4, align 8
  ret ptr %5
}

; Function Attrs: mustprogress nounwind uwtable
define linkonce_odr noundef ptr @_ZNKSt19__shared_ptr_accessIN3gmx25AnalysisDataAverageModuleELN9__gnu_cxx12_Lock_policyE2ELb0ELb0EE6_M_getEv(ptr noundef nonnull align 1 dereferenceable(1) %0) #3 comdat align 2 {
  %2 = alloca ptr, align 8
  store ptr %0, ptr %2, align 8
  %3 = load ptr, ptr %2, align 8
  %4 = call noundef ptr @_ZNKSt12__shared_ptrIN3gmx25AnalysisDataAverageModuleELN9__gnu_cxx12_Lock_policyE2EE3getEv(ptr noundef nonnull align 8 dereferenceable(16) %3) #13
  ret ptr %4
}

; Function Attrs: mustprogress nounwind uwtable
define linkonce_odr noundef ptr @_ZNK3gmx8internal13SelectionData4nameEv(ptr noundef nonnull align 8 dereferenceable(294) %0) #3 comdat align 2 {
  %2 = alloca ptr, align 8
  store ptr %0, ptr %2, align 8
  %3 = load ptr, ptr %2, align 8
  %4 = getelementptr inbounds %"class.gmx::internal::SelectionData", ptr %3, i32 0, i32 0
  %5 = call noundef ptr @_ZNKSt7__cxx1112basic_stringIcSt11char_traitsIcESaIcEE5c_strEv(ptr noundef nonnull align 8 dereferenceable(32) %4) #13
  ret ptr %5
}

; Function Attrs: mustprogress nounwind uwtable
define linkonce_odr noundef nonnull align 8 dereferenceable(294) ptr @_ZNK3gmx9Selection4dataEv(ptr noundef nonnull align 8 dereferenceable(8) %0) #3 comdat align 2 {
  %2 = alloca ptr, align 8
  store ptr %0, ptr %2, align 8
  %3 = load ptr, ptr %2, align 8
  %4 = getelementptr inbounds %"class.gmx::Selection", ptr %3, i32 0, i32 0
  %5 = load ptr, ptr %4, align 8
  ret ptr %5
}

; Function Attrs: mustprogress nounwind uwtable
define linkonce_odr noundef nonnull align 8 dereferenceable(8) ptr @_ZNK9__gnu_cxx17__normal_iteratorIPKN3gmx9SelectionESt6vectorIS2_SaIS2_EEE4baseEv(ptr noundef nonnull align 8 dereferenceable(8) %0) #3 comdat align 2 {
  %2 = alloca ptr, align 8
  store ptr %0, ptr %2, align 8
  %3 = load ptr, ptr %2, align 8
  %4 = getelementptr inbounds %"class.__gnu_cxx::__normal_iterator", ptr %3, i32 0, i32 0
  ret ptr %4
}

; Function Attrs: mustprogress nounwind uwtable
define linkonce_odr noundef nonnull align 8 dereferenceable(8) ptr @_ZNK9__gnu_cxx17__normal_iteratorIPN3gmx9SelectionESt6vectorIS2_SaIS2_EEE4baseEv(ptr noundef nonnull align 8 dereferenceable(8) %0) #3 comdat align 2 {
  %2 = alloca ptr, align 8
  store ptr %0, ptr %2, align 8
  %3 = load ptr, ptr %2, align 8
  %4 = getelementptr inbounds %"class.__gnu_cxx::__normal_iterator.165", ptr %3, i32 0, i32 0
  ret ptr %4
}

; Function Attrs: mustprogress nounwind uwtable
define linkonce_odr void @_ZN9__gnu_cxx17__normal_iteratorIPN3gmx9SelectionESt6vectorIS2_SaIS2_EEEC2ERKS3_(ptr noundef nonnull align 8 dereferenceable(8) %0, ptr noundef nonnull align 8 dereferenceable(8) %1) unnamed_addr #3 comdat align 2 {
  %3 = alloca ptr, align 8
  %4 = alloca ptr, align 8
  store ptr %0, ptr %3, align 8
  store ptr %1, ptr %4, align 8
  %5 = load ptr, ptr %3, align 8
  %6 = getelementptr inbounds %"class.__gnu_cxx::__normal_iterator.165", ptr %5, i32 0, i32 0
  %7 = load ptr, ptr %4, align 8
  %8 = load ptr, ptr %7, align 8
  store ptr %8, ptr %6, align 8
  ret void
}

; Function Attrs: mustprogress nounwind uwtable
define linkonce_odr noundef nonnull align 8 dereferenceable(8) ptr @_ZN9__gnu_cxx17__normal_iteratorIPKN3gmx9SelectionESt6vectorIS2_SaIS2_EEEppEv(ptr noundef nonnull align 8 dereferenceable(8) %0) #3 comdat align 2 {
  %2 = alloca ptr, align 8
  store ptr %0, ptr %2, align 8
  %3 = load ptr, ptr %2, align 8
  %4 = getelementptr inbounds %"class.__gnu_cxx::__normal_iterator", ptr %3, i32 0, i32 0
  %5 = load ptr, ptr %4, align 8
  %6 = getelementptr inbounds %"class.gmx::Selection", ptr %5, i32 1
  store ptr %6, ptr %4, align 8
  ret ptr %3
}

; Function Attrs: mustprogress nounwind uwtable
define linkonce_odr noundef ptr @_ZNKSt19__shared_ptr_accessIN3gmx25AnalysisDataAverageModuleELN9__gnu_cxx12_Lock_policyE2ELb0ELb0EEptEv(ptr noundef nonnull align 1 dereferenceable(1) %0) #3 comdat align 2 {
  %2 = alloca ptr, align 8
  store ptr %0, ptr %2, align 8
  %3 = load ptr, ptr %2, align 8
  %4 = call noundef ptr @_ZNKSt19__shared_ptr_accessIN3gmx25AnalysisDataAverageModuleELN9__gnu_cxx12_Lock_policyE2ELb0ELb0EE6_M_getEv(ptr noundef nonnull align 1 dereferenceable(1) %3) #13
  ret ptr %4
}

; Function Attrs: mustprogress uwtable
define linkonce_odr noundef ptr @_ZNK3gmx9Selection4nameEv(ptr noundef nonnull align 8 dereferenceable(8) %0) #0 comdat align 2 {
  %2 = alloca ptr, align 8
  store ptr %0, ptr %2, align 8
  %3 = load ptr, ptr %2, align 8
  %4 = call noundef nonnull align 8 dereferenceable(294) ptr @_ZNK3gmx9Selection4dataEv(ptr noundef nonnull align 8 dereferenceable(8) %3)
  %5 = call noundef ptr @_ZNK3gmx8internal13SelectionData4nameEv(ptr noundef nonnull align 8 dereferenceable(294) %4)
  ret ptr %5
}

; Function Attrs: mustprogress nounwind uwtable
define linkonce_odr noundef ptr @_ZNK9__gnu_cxx17__normal_iteratorIPKN3gmx9SelectionESt6vectorIS2_SaIS2_EEEptEv(ptr noundef nonnull align 8 dereferenceable(8) %0) #3 comdat align 2 {
  %2 = alloca ptr, align 8
  store ptr %0, ptr %2, align 8
  %3 = load ptr, ptr %2, align 8
  %4 = getelementptr inbounds %"class.__gnu_cxx::__normal_iterator", ptr %3, i32 0, i32 0
  %5 = load ptr, ptr %4, align 8
  ret ptr %5
}

; Function Attrs: mustprogress nounwind uwtable
define linkonce_odr noundef zeroext i1 @_ZN9__gnu_cxxneIPKN3gmx9SelectionEPS2_St6vectorIS2_SaIS2_EEEEbRKNS_17__normal_iteratorIT_T1_EERKNS9_IT0_SB_EE(ptr noundef nonnull align 8 dereferenceable(8) %0, ptr noundef nonnull align 8 dereferenceable(8) %1) #3 comdat {
  %3 = alloca ptr, align 8
  %4 = alloca ptr, align 8
  store ptr %0, ptr %3, align 8
  store ptr %1, ptr %4, align 8
  %5 = load ptr, ptr %3, align 8
  %6 = call noundef nonnull align 8 dereferenceable(8) ptr @_ZNK9__gnu_cxx17__normal_iteratorIPKN3gmx9SelectionESt6vectorIS2_SaIS2_EEE4baseEv(ptr noundef nonnull align 8 dereferenceable(8) %5) #13
  %7 = load ptr, ptr %6, align 8
  %8 = load ptr, ptr %4, align 8
  %9 = call noundef nonnull align 8 dereferenceable(8) ptr @_ZNK9__gnu_cxx17__normal_iteratorIPN3gmx9SelectionESt6vectorIS2_SaIS2_EEE4baseEv(ptr noundef nonnull align 8 dereferenceable(8) %8) #13
  %10 = load ptr, ptr %9, align 8
  %11 = icmp ne ptr %7, %10
  ret i1 %11
}

; Function Attrs: mustprogress nounwind uwtable
define linkonce_odr ptr @_ZNSt6vectorIN3gmx9SelectionESaIS1_EE3endEv(ptr noundef nonnull align 8 dereferenceable(24) %0) #3 comdat align 2 {
  %2 = alloca %"class.__gnu_cxx::__normal_iterator.165", align 8
  %3 = alloca ptr, align 8
  store ptr %0, ptr %3, align 8
  %4 = load ptr, ptr %3, align 8
  %5 = getelementptr inbounds %"struct.std::_Vector_base", ptr %4, i32 0, i32 0
  %6 = getelementptr inbounds %"struct.std::_Vector_base<gmx::Selection, std::allocator<gmx::Selection>>::_Vector_impl_data", ptr %5, i32 0, i32 1
  call void @_ZN9__gnu_cxx17__normal_iteratorIPN3gmx9SelectionESt6vectorIS2_SaIS2_EEEC2ERKS3_(ptr noundef nonnull align 8 dereferenceable(8) %2, ptr noundef nonnull align 8 dereferenceable(8) %6) #13
  %7 = getelementptr inbounds %"class.__gnu_cxx::__normal_iterator.165", ptr %2, i32 0, i32 0
  %8 = load ptr, ptr %7, align 8
  ret ptr %8
}

; Function Attrs: mustprogress nounwind uwtable
define linkonce_odr void @_ZN9__gnu_cxx17__normal_iteratorIPKN3gmx9SelectionESt6vectorIS2_SaIS2_EEEC2IPS2_vEERKNS0_IT_S7_EE(ptr noundef nonnull align 8 dereferenceable(8) %0, ptr noundef nonnull align 8 dereferenceable(8) %1) unnamed_addr #3 comdat align 2 {
  %3 = alloca ptr, align 8
  %4 = alloca ptr, align 8
  store ptr %0, ptr %3, align 8
  store ptr %1, ptr %4, align 8
  %5 = load ptr, ptr %3, align 8
  %6 = getelementptr inbounds %"class.__gnu_cxx::__normal_iterator", ptr %5, i32 0, i32 0
  %7 = load ptr, ptr %4, align 8
  %8 = call noundef nonnull align 8 dereferenceable(8) ptr @_ZNK9__gnu_cxx17__normal_iteratorIPN3gmx9SelectionESt6vectorIS2_SaIS2_EEE4baseEv(ptr noundef nonnull align 8 dereferenceable(8) %7) #13
  %9 = load ptr, ptr %8, align 8
  store ptr %9, ptr %6, align 8
  ret void
}

; Function Attrs: mustprogress nounwind uwtable
define linkonce_odr ptr @_ZNSt6vectorIN3gmx9SelectionESaIS1_EE5beginEv(ptr noundef nonnull align 8 dereferenceable(24) %0) #3 comdat align 2 {
  %2 = alloca %"class.__gnu_cxx::__normal_iterator.165", align 8
  %3 = alloca ptr, align 8
  store ptr %0, ptr %3, align 8
  %4 = load ptr, ptr %3, align 8
  %5 = getelementptr inbounds %"struct.std::_Vector_base", ptr %4, i32 0, i32 0
  %6 = getelementptr inbounds %"struct.std::_Vector_base<gmx::Selection, std::allocator<gmx::Selection>>::_Vector_impl_data", ptr %5, i32 0, i32 0
  call void @_ZN9__gnu_cxx17__normal_iteratorIPN3gmx9SelectionESt6vectorIS2_SaIS2_EEEC2ERKS3_(ptr noundef nonnull align 8 dereferenceable(8) %2, ptr noundef nonnull align 8 dereferenceable(8) %6) #13
  %7 = getelementptr inbounds %"class.__gnu_cxx::__normal_iterator.165", ptr %2, i32 0, i32 0
  %8 = load ptr, ptr %7, align 8
  ret ptr %8
}

; Function Attrs: mustprogress nounwind uwtable
define linkonce_odr void @_ZN9__gnu_cxx17__normal_iteratorIPKN3gmx9SelectionESt6vectorIS2_SaIS2_EEEC2Ev(ptr noundef nonnull align 8 dereferenceable(8) %0) unnamed_addr #3 comdat align 2 {
  %2 = alloca ptr, align 8
  store ptr %0, ptr %2, align 8
  %3 = load ptr, ptr %2, align 8
  %4 = getelementptr inbounds %"class.__gnu_cxx::__normal_iterator", ptr %3, i32 0, i32 0
  store ptr null, ptr %4, align 8
  ret void
}

; Function Attrs: mustprogress uwtable
define internal void @_ZN3gmx15analysismodules12_GLOBAL__N_18Distance11writeOutputEv(ptr noundef nonnull align 8 dereferenceable(336) %0) unnamed_addr #0 align 2 {
  %2 = alloca ptr, align 8
  %3 = alloca %"class.__gnu_cxx::__normal_iterator", align 8
  %4 = alloca i32, align 4
  %5 = alloca %"class.__gnu_cxx::__normal_iterator", align 8
  %6 = alloca %"class.__gnu_cxx::__normal_iterator.165", align 8
  %7 = alloca %"class.__gnu_cxx::__normal_iterator.165", align 8
  store ptr %0, ptr %2, align 8
  %8 = load ptr, ptr %2, align 8
  call void @_ZN9__gnu_cxx17__normal_iteratorIPKN3gmx9SelectionESt6vectorIS2_SaIS2_EEEC2Ev(ptr noundef nonnull align 8 dereferenceable(8) %3) #13
  store i32 0, ptr %4, align 4
  %9 = getelementptr inbounds %"class.gmx::analysismodules::(anonymous namespace)::Distance", ptr %8, i32 0, i32 1
  %10 = call ptr @_ZNSt6vectorIN3gmx9SelectionESaIS1_EE5beginEv(ptr noundef nonnull align 8 dereferenceable(24) %9) #13
  %11 = getelementptr inbounds %"class.__gnu_cxx::__normal_iterator.165", ptr %6, i32 0, i32 0
  store ptr %10, ptr %11, align 8
  call void @_ZN9__gnu_cxx17__normal_iteratorIPKN3gmx9SelectionESt6vectorIS2_SaIS2_EEEC2IPS2_vEERKNS0_IT_S7_EE(ptr noundef nonnull align 8 dereferenceable(8) %5, ptr noundef nonnull align 8 dereferenceable(8) %6) #13
  call void @llvm.memcpy.p0.p0.i64(ptr align 8 %3, ptr align 8 %5, i64 8, i1 false)
  br label %12

12:                                               ; preds = %38, %1
  %13 = getelementptr inbounds %"class.gmx::analysismodules::(anonymous namespace)::Distance", ptr %8, i32 0, i32 1
  %14 = call ptr @_ZNSt6vectorIN3gmx9SelectionESaIS1_EE3endEv(ptr noundef nonnull align 8 dereferenceable(24) %13) #13
  %15 = getelementptr inbounds %"class.__gnu_cxx::__normal_iterator.165", ptr %7, i32 0, i32 0
  store ptr %14, ptr %15, align 8
  %16 = call noundef zeroext i1 @_ZN9__gnu_cxxneIPKN3gmx9SelectionEPS2_St6vectorIS2_SaIS2_EEEEbRKNS_17__normal_iteratorIT_T1_EERKNS9_IT0_SB_EE(ptr noundef nonnull align 8 dereferenceable(8) %3, ptr noundef nonnull align 8 dereferenceable(8) %7) #13
  br i1 %16, label %17, label %42

17:                                               ; preds = %12
  %18 = call noundef ptr @_ZNK9__gnu_cxx17__normal_iteratorIPKN3gmx9SelectionESt6vectorIS2_SaIS2_EEEptEv(ptr noundef nonnull align 8 dereferenceable(8) %3) #13
  %19 = call noundef ptr @_ZNK3gmx9Selection4nameEv(ptr noundef nonnull align 8 dereferenceable(8) %18)
  %20 = call i32 (ptr, ...) @printf(ptr noundef @.str.61, ptr noundef %19)
  %21 = getelementptr inbounds %"class.gmx::analysismodules::(anonymous namespace)::Distance", ptr %8, i32 0, i32 12
  %22 = call noundef ptr @_ZNKSt19__shared_ptr_accessIN3gmx25AnalysisDataAverageModuleELN9__gnu_cxx12_Lock_policyE2ELb0ELb0EEptEv(ptr noundef nonnull align 1 dereferenceable(1) %21) #13
  %23 = load i32, ptr %4, align 4
  %24 = call noundef i32 @_ZNK3gmx25AnalysisDataAverageModule11sampleCountEii(ptr noundef nonnull align 8 dereferenceable(112) %22, i32 noundef %23, i32 noundef 0)
  %25 = call i32 (ptr, ...) @printf(ptr noundef @.str.62, i32 noundef %24)
  %26 = getelementptr inbounds %"class.gmx::analysismodules::(anonymous namespace)::Distance", ptr %8, i32 0, i32 12
  %27 = call noundef ptr @_ZNKSt19__shared_ptr_accessIN3gmx25AnalysisDataAverageModuleELN9__gnu_cxx12_Lock_policyE2ELb0ELb0EEptEv(ptr noundef nonnull align 1 dereferenceable(1) %26) #13
  %28 = load i32, ptr %4, align 4
  %29 = call noundef float @_ZNK3gmx25AnalysisDataAverageModule7averageEii(ptr noundef nonnull align 8 dereferenceable(112) %27, i32 noundef %28, i32 noundef 0)
  %30 = fpext float %29 to double
  %31 = call i32 (ptr, ...) @printf(ptr noundef @.str.63, double noundef %30)
  %32 = getelementptr inbounds %"class.gmx::analysismodules::(anonymous namespace)::Distance", ptr %8, i32 0, i32 12
  %33 = call noundef ptr @_ZNKSt19__shared_ptr_accessIN3gmx25AnalysisDataAverageModuleELN9__gnu_cxx12_Lock_policyE2ELb0ELb0EEptEv(ptr noundef nonnull align 1 dereferenceable(1) %32) #13
  %34 = load i32, ptr %4, align 4
  %35 = call noundef float @_ZNK3gmx25AnalysisDataAverageModule17standardDeviationEii(ptr noundef nonnull align 8 dereferenceable(112) %33, i32 noundef %34, i32 noundef 0)
  %36 = fpext float %35 to double
  %37 = call i32 (ptr, ...) @printf(ptr noundef @.str.64, double noundef %36)
  br label %38

38:                                               ; preds = %17
  %39 = call noundef nonnull align 8 dereferenceable(8) ptr @_ZN9__gnu_cxx17__normal_iteratorIPKN3gmx9SelectionESt6vectorIS2_SaIS2_EEEppEv(ptr noundef nonnull align 8 dereferenceable(8) %3) #13
  %40 = load i32, ptr %4, align 4
  %41 = add nsw i32 %40, 1
  store i32 %41, ptr %4, align 4
  br label %12, !llvm.loop !12

42:                                               ; preds = %12
  ret void
}