; Function Attrs: mustprogress uwtable
define internal void @_ZN3gmx15analysismodules12_GLOBAL__N_18Distance11writeOutputEv(ptr nocapture noundef nonnull readonly align 8 dereferenceable(336) %0) unnamed_addr #0 align 2 {
  %2 = getelementptr inbounds i8, ptr %0, i64 16
  %3 = load ptr, ptr %2, align 8
  %4 = getelementptr inbounds i8, ptr %0, i64 24
  %5 = load ptr, ptr %4, align 8
  %.not9 = icmp eq ptr %3, %5
  br i1 %.not9, label %._crit_edge, label %.lr.ph

.lr.ph:                                           ; preds = %1
  %6 = getelementptr inbounds i8, ptr %0, i64 272
  br label %7

7:                                                ; preds = %.lr.ph, %7
  %.011 = phi i32 [ 0, %.lr.ph ], [ %23, %7 ]
  %.sroa.06.010 = phi ptr [ %3, %.lr.ph ], [ %22, %7 ]
  %8 = load ptr, ptr %.sroa.06.010, align 8
  %9 = tail call noundef ptr @_ZNKSt7__cxx1112basic_stringIcSt11char_traitsIcESaIcEE5c_strEv(ptr noundef nonnull align 8 dereferenceable(32) %8) #17
  %10 = tail call i32 (ptr, ...) @printf(ptr noundef nonnull dereferenceable(1) @.str.61, ptr noundef %9)
  %11 = load ptr, ptr %6, align 8
  %12 = tail call noundef i32 @_ZNK3gmx25AnalysisDataAverageModule11sampleCountEii(ptr noundef nonnull align 8 dereferenceable(112) %11, i32 noundef %.011, i32 noundef 0)
  %13 = tail call i32 (ptr, ...) @printf(ptr noundef nonnull dereferenceable(1) @.str.62, i32 noundef %12)
  %14 = load ptr, ptr %6, align 8
  %15 = tail call noundef float @_ZNK3gmx25AnalysisDataAverageModule7averageEii(ptr noundef nonnull align 8 dereferenceable(112) %14, i32 noundef %.011, i32 noundef 0)
  %16 = fpext float %15 to double
  %17 = tail call i32 (ptr, ...) @printf(ptr noundef nonnull dereferenceable(1) @.str.63, double noundef %16)
  %18 = load ptr, ptr %6, align 8
  %19 = tail call noundef float @_ZNK3gmx25AnalysisDataAverageModule17standardDeviationEii(ptr noundef nonnull align 8 dereferenceable(112) %18, i32 noundef %.011, i32 noundef 0)
  %20 = fpext float %19 to double
  %21 = tail call i32 (ptr, ...) @printf(ptr noundef nonnull dereferenceable(1) @.str.64, double noundef %20)
  %22 = getelementptr inbounds i8, ptr %.sroa.06.010, i64 8
  %23 = add nuw nsw i32 %.011, 1
  %24 = load ptr, ptr %4, align 8
  %.not = icmp eq ptr %22, %24
  br i1 %.not, label %._crit_edge, label %7, !llvm.loop !27

._crit_edge:                                      ; preds = %7, %1
  ret void
}